; Function Attrs: nounwind uwtable
define internal range(i32 0, 2) i32 @ecx_set_priv_key(ptr noundef %0, ptr noundef %1, i64 noundef %2) #0 {
  %4 = getelementptr inbounds nuw i8, ptr %0, i64 96
  %5 = load ptr, ptr %4, align 8, !tbaa !34
  %.not = icmp eq ptr %5, null
  br i1 %.not, label %9, label %6

6:                                                ; preds = %3
  %7 = tail call ptr @EVP_KEYMGMT_get0_provider(ptr noundef nonnull %5) #8
  %8 = tail call ptr @ossl_provider_libctx(ptr noundef %7) #8
  br label %9

9:                                                ; preds = %6, %3
  %.0 = phi ptr [ %8, %6 ], [ null, %3 ]
  %10 = trunc i64 %2 to i32
  %11 = getelementptr inbounds nuw i8, ptr %0, i64 8
  %12 = load ptr, ptr %11, align 8, !tbaa !12
  %13 = load i32, ptr %12, align 8, !tbaa !25
  %14 = tail call ptr @ossl_ecx_key_op(ptr noundef null, ptr noundef %1, i32 noundef %10, i32 noundef %13, i32 noundef 1, ptr noundef %.0, ptr noundef null) #8
  %.not13 = icmp eq ptr %14, null
  br i1 %.not13, label %19, label %15

15:                                               ; preds = %9
  %16 = load ptr, ptr %11, align 8, !tbaa !12
  %17 = load i32, ptr %16, align 8, !tbaa !25
  %18 = tail call i32 @EVP_PKEY_assign(ptr noundef nonnull %0, i32 noundef %17, ptr noundef nonnull %14) #8
  br label %19

19:                                               ; preds = %9, %15
  %.010 = phi i32 [ 1, %15 ], [ 0, %9 ]
  ret i32 %.010
}